target datalayout = "e-m:e-p270:32:32-p271:32:32-p272:64:64-i64:64-i128:128-f80:128-n8:16:32:64-S128"
target triple = "x86_64-pc-linux-gnu"

%struct.mbedtls_pk_context = type { ptr, ptr }
%struct.mbedtls_pk_debug_item = type { i32, ptr, ptr }
%struct.mbedtls_mpi = type { ptr, i16, i16 }
%struct.mbedtls_ecp_keypair = type { %struct.mbedtls_ecp_group, %struct.mbedtls_mpi, %struct.mbedtls_ecp_point }
%struct.mbedtls_ecp_group = type { i32, %struct.mbedtls_mpi, %struct.mbedtls_mpi, %struct.mbedtls_mpi, %struct.mbedtls_ecp_point, %struct.mbedtls_mpi, i64, i64, i32, ptr, ptr, ptr, ptr, ptr, i64 }
%struct.mbedtls_ecp_point = type { %struct.mbedtls_mpi, %struct.mbedtls_mpi, %struct.mbedtls_mpi }

@.str.7 = private unnamed_addr constant [8 x i8] c"eckey.Q\00", align 1

; Function Attrs: nounwind uwtable
define internal void @eckey_debug(ptr noundef %0, ptr noundef %1) #0 {
  %3 = alloca ptr, align 8
  %4 = alloca ptr, align 8
  %5 = alloca ptr, align 8
  store ptr %0, ptr %3, align 8, !tbaa !3
  store ptr %1, ptr %4, align 8, !tbaa !22
  call void @llvm.lifetime.start.p0(i64 8, ptr %5) #6
  %6 = load ptr, ptr %3, align 8, !tbaa !3
  %7 = getelementptr inbounds nuw %struct.mbedtls_pk_context, ptr %6, i32 0, i32 1
  %8 = load ptr, ptr %7, align 8, !tbaa !8
  store ptr %8, ptr %5, align 8, !tbaa !28
  %9 = load ptr, ptr %4, align 8, !tbaa !22
  %10 = getelementptr inbounds nuw %struct.mbedtls_pk_debug_item, ptr %9, i32 0, i32 0
  store i32 2, ptr %10, align 8, !tbaa !24
  %11 = load ptr, ptr %4, align 8, !tbaa !22
  %12 = getelementptr inbounds nuw %struct.mbedtls_pk_debug_item, ptr %11, i32 0, i32 1
  store ptr @.str.7, ptr %12, align 8, !tbaa !26
  %13 = load ptr, ptr %5, align 8, !tbaa !28
  %14 = getelementptr inbounds nuw %struct.mbedtls_ecp_keypair, ptr %13, i32 0, i32 2
  %15 = load ptr, ptr %4, align 8, !tbaa !22
  %16 = getelementptr inbounds nuw %struct.mbedtls_pk_debug_item, ptr %15, i32 0, i32 2
  store ptr %14, ptr %16, align 8, !tbaa !27
  call void @llvm.lifetime.end.p0(i64 8, ptr %5) #6
  ret void
}